; Function Attrs: nounwind uwtable
define dso_local void @ExecInitResultTupleSlotTL(ptr noundef captures(none) initializes((112, 128), (184, 192), (195, 196), (199, 200)) %0, ptr noundef %1) local_unnamed_addr #1 {
  %3 = getelementptr inbounds nuw i8, ptr %0, i64 8
  %4 = load ptr, ptr %3, align 8
  %5 = getelementptr inbounds nuw i8, ptr %4, i64 48
  %6 = load ptr, ptr %5, align 8
  %7 = tail call fastcc ptr @ExecTypeFromTLInternal(ptr noundef %6, i1 noundef zeroext false)
  %8 = getelementptr inbounds nuw i8, ptr %0, i64 112
  store ptr %7, ptr %8, align 8
  tail call void @ExecInitResultSlot(ptr noundef %0, ptr noundef %1)
  ret void
}